target datalayout = "e-m:e-p270:32:32-p271:32:32-p272:64:64-i64:64-i128:128-f80:128-n8:16:32:64-S128"
target triple = "x86_64-pc-linux-gnu"

%"class.std::__cxx11::basic_string" = type { %"struct.std::__cxx11::basic_string<char>::_Alloc_hider", i64, %union.anon }
%"struct.std::__cxx11::basic_string<char>::_Alloc_hider" = type { ptr }
%union.anon = type { i64, [8 x i8] }
%class.V3Options = type <{ ptr, %"class.std::set", %"class.std::vector", %"class.std::vector", %"class.std::vector", %"class.std::set", %"class.std::set", %"class.std::set", %"class.std::set", %"class.std::set", %"class.std::set", %"class.std::set", %"class.std::vector", %"class.std::set", %"class.std::vector", %"class.std::map.11", %"class.std::map.11", %"class.std::map", %"class.std::map.16", %"class.std::set", i8, i8, i8, i8, i8, i8, i8, i8, i8, i8, i8, i8, i8, i8, i8, i8, i8, i8, i8, i8, i8, i8, i8, i8, i8, i8, i8, i8, i8, i8, i8, i8, i8, i8, i8, i8, i8, i8, i8, i8, i8, i8, i8, i8, i8, i8, i8, i8, i8, i8, i8, i8, i8, i8, i8, i8, i8, i8, i8, i8, i8, i8, i8, i8, i8, i8, i8, i8, i8, i8, i8, i8, i8, i8, %class.VOptionBool, i8, i8, i8, i8, i8, i8, i8, i8, i8, i8, i8, i8, i8, i32, i32, i32, i32, i32, i32, i32, i32, i32, i32, i8, i8, [2 x i8], i32, %class.VOptionBool, [3 x i8], i32, i32, i32, i32, i32, i32, i32, i32, i32, i32, %class.VOptionBool, i8, [2 x i8], i32, i32, %class.VTimescale, %class.VTimescale, %class.VTimescale, %class.VTimescale, i32, %class.TraceFormat, [3 x i8], i32, i32, i32, i32, i32, i32, i32, i32, i32, %"class.std::__cxx11::basic_string", %"class.std::__cxx11::basic_string", %"class.std::__cxx11::basic_string", %"class.std::__cxx11::basic_string", %"class.std::__cxx11::basic_string", %"class.std::__cxx11::basic_string", %"class.std::__cxx11::basic_string", %"class.std::__cxx11::basic_string", %"class.std::__cxx11::basic_string", %"class.std::__cxx11::basic_string", %"class.std::__cxx11::basic_string", %"class.std::__cxx11::basic_string", %"class.std::__cxx11::basic_string", %"class.std::__cxx11::basic_string", %"class.std::__cxx11::basic_string", %"class.std::__cxx11::basic_string", %"class.std::__cxx11::basic_string", %"class.std::__cxx11::basic_string", %"class.std::__cxx11::basic_string", %"class.std::__cxx11::basic_string", %class.V3LangCode, i8, i8, i8, i8, i8, i8, i8, i8, i8, i8, i8, i8, i8, i8, i8, i8, i8, i8, i8, i8, i8, i8, i8, i8, i8, i8, i8, i8, i8, i8, i8, i8, i8, i8, [5 x i8] }>
%"class.std::vector" = type { %"struct.std::_Vector_base" }
%"struct.std::_Vector_base" = type { %"struct.std::_Vector_base<std::__cxx11::basic_string<char>, std::allocator<std::__cxx11::basic_string<char>>>::_Vector_impl" }
%"struct.std::_Vector_base<std::__cxx11::basic_string<char>, std::allocator<std::__cxx11::basic_string<char>>>::_Vector_impl" = type { %"struct.std::_Vector_base<std::__cxx11::basic_string<char>, std::allocator<std::__cxx11::basic_string<char>>>::_Vector_impl_data" }
%"struct.std::_Vector_base<std::__cxx11::basic_string<char>, std::allocator<std::__cxx11::basic_string<char>>>::_Vector_impl_data" = type { ptr, ptr, ptr }
%"class.std::map.11" = type { %"class.std::_Rb_tree.12" }
%"class.std::_Rb_tree.12" = type { %"struct.std::_Rb_tree<const std::__cxx11::basic_string<char>, std::pair<const std::__cxx11::basic_string<char>, unsigned int>, std::_Select1st<std::pair<const std::__cxx11::basic_string<char>, unsigned int>>, std::less<const std::__cxx11::basic_string<char>>>::_Rb_tree_impl" }
%"struct.std::_Rb_tree<const std::__cxx11::basic_string<char>, std::pair<const std::__cxx11::basic_string<char>, unsigned int>, std::_Select1st<std::pair<const std::__cxx11::basic_string<char>, unsigned int>>, std::less<const std::__cxx11::basic_string<char>>>::_Rb_tree_impl" = type { [8 x i8], %"struct.std::_Rb_tree_header" }
%"struct.std::_Rb_tree_header" = type { %"struct.std::_Rb_tree_node_base", i64 }
%"struct.std::_Rb_tree_node_base" = type { i32, ptr, ptr, ptr }
%"class.std::map" = type { %"class.std::_Rb_tree" }
%"class.std::_Rb_tree" = type { %"struct.std::_Rb_tree<const std::__cxx11::basic_string<char>, std::pair<const std::__cxx11::basic_string<char>, std::__cxx11::basic_string<char>>, std::_Select1st<std::pair<const std::__cxx11::basic_string<char>, std::__cxx11::basic_string<char>>>, std::less<const std::__cxx11::basic_string<char>>>::_Rb_tree_impl" }
%"struct.std::_Rb_tree<const std::__cxx11::basic_string<char>, std::pair<const std::__cxx11::basic_string<char>, std::__cxx11::basic_string<char>>, std::_Select1st<std::pair<const std::__cxx11::basic_string<char>, std::__cxx11::basic_string<char>>>, std::less<const std::__cxx11::basic_string<char>>>::_Rb_tree_impl" = type { [8 x i8], %"struct.std::_Rb_tree_header" }
%"class.std::map.16" = type { %"class.std::_Rb_tree.17" }
%"class.std::_Rb_tree.17" = type { %"struct.std::_Rb_tree<const std::__cxx11::basic_string<char>, std::pair<const std::__cxx11::basic_string<char>, V3HierarchicalBlockOption>, std::_Select1st<std::pair<const std::__cxx11::basic_string<char>, V3HierarchicalBlockOption>>, std::less<const std::__cxx11::basic_string<char>>>::_Rb_tree_impl" }
%"struct.std::_Rb_tree<const std::__cxx11::basic_string<char>, std::pair<const std::__cxx11::basic_string<char>, V3HierarchicalBlockOption>, std::_Select1st<std::pair<const std::__cxx11::basic_string<char>, V3HierarchicalBlockOption>>, std::less<const std::__cxx11::basic_string<char>>>::_Rb_tree_impl" = type { [8 x i8], %"struct.std::_Rb_tree_header" }
%"class.std::set" = type { %"class.std::_Rb_tree.6" }
%"class.std::_Rb_tree.6" = type { %"struct.std::_Rb_tree<std::__cxx11::basic_string<char>, std::__cxx11::basic_string<char>, std::_Identity<std::__cxx11::basic_string<char>>, std::less<std::__cxx11::basic_string<char>>>::_Rb_tree_impl" }
%"struct.std::_Rb_tree<std::__cxx11::basic_string<char>, std::__cxx11::basic_string<char>, std::_Identity<std::__cxx11::basic_string<char>>, std::less<std::__cxx11::basic_string<char>>>::_Rb_tree_impl" = type { [8 x i8], %"struct.std::_Rb_tree_header" }
%class.VOptionBool = type { i8 }
%class.VTimescale = type { i8 }
%class.TraceFormat = type { i8 }
%class.V3LangCode = type { i8 }
%class.anon.161 = type { ptr }

; Function Attrs: mustprogress nounwind uwtable
define dso_local void @_ZN9V3Options8optimizeEi(ptr noundef nonnull align 8 dereferenceable(1720) %0, i32 noundef %1) #6 align 2 {
  %3 = alloca ptr, align 8
  %4 = alloca i32, align 4
  %5 = alloca i8, align 1
  store ptr %0, ptr %3, align 8, !tbaa !93
  store i32 %1, ptr %4, align 4, !tbaa !11
  %6 = load ptr, ptr %3, align 8
  call void @llvm.lifetime.start.p0(i64 1, ptr %5) #3
  %7 = load i32, ptr %4, align 4, !tbaa !11
  %8 = icmp sgt i32 %7, 0
  %9 = zext i1 %8 to i8
  store i8 %9, ptr %5, align 1, !tbaa !27
  %10 = load i8, ptr %5, align 1, !tbaa !27, !range !33, !noundef !34
  %11 = trunc i8 %10 to i1
  %12 = getelementptr inbounds nuw %class.V3Options, ptr %6, i32 0, i32 176
  %13 = zext i1 %11 to i8
  store i8 %13, ptr %12, align 1, !tbaa !667
  %14 = load i8, ptr %5, align 1, !tbaa !27, !range !33, !noundef !34
  %15 = trunc i8 %14 to i1
  %16 = getelementptr inbounds nuw %class.V3Options, ptr %6, i32 0, i32 177
  %17 = zext i1 %15 to i8
  store i8 %17, ptr %16, align 2, !tbaa !668
  %18 = load i8, ptr %5, align 1, !tbaa !27, !range !33, !noundef !34
  %19 = trunc i8 %18 to i1
  %20 = getelementptr inbounds nuw %class.V3Options, ptr %6, i32 0, i32 178
  %21 = zext i1 %19 to i8
  store i8 %21, ptr %20, align 1, !tbaa !669
  %22 = load i8, ptr %5, align 1, !tbaa !27, !range !33, !noundef !34
  %23 = trunc i8 %22 to i1
  %24 = getelementptr inbounds nuw %class.V3Options, ptr %6, i32 0, i32 179
  %25 = zext i1 %23 to i8
  store i8 %25, ptr %24, align 4, !tbaa !670
  %26 = load i8, ptr %5, align 1, !tbaa !27, !range !33, !noundef !34
  %27 = trunc i8 %26 to i1
  %28 = getelementptr inbounds nuw %class.V3Options, ptr %6, i32 0, i32 180
  %29 = zext i1 %27 to i8
  store i8 %29, ptr %28, align 1, !tbaa !671
  %30 = load i8, ptr %5, align 1, !tbaa !27, !range !33, !noundef !34
  %31 = trunc i8 %30 to i1
  %32 = getelementptr inbounds nuw %class.V3Options, ptr %6, i32 0, i32 182
  %33 = zext i1 %31 to i8
  store i8 %33, ptr %32, align 1, !tbaa !672
  %34 = load i8, ptr %5, align 1, !tbaa !27, !range !33, !noundef !34
  %35 = trunc i8 %34 to i1
  %36 = getelementptr inbounds nuw %class.V3Options, ptr %6, i32 0, i32 183
  %37 = zext i1 %35 to i8
  store i8 %37, ptr %36, align 8, !tbaa !673
  %38 = load i8, ptr %5, align 1, !tbaa !27, !range !33, !noundef !34
  %39 = trunc i8 %38 to i1
  %40 = getelementptr inbounds nuw %class.V3Options, ptr %6, i32 0, i32 185
  %41 = zext i1 %39 to i8
  store i8 %41, ptr %40, align 2, !tbaa !674
  %42 = load i8, ptr %5, align 1, !tbaa !27, !range !33, !noundef !34
  %43 = trunc i8 %42 to i1
  %44 = getelementptr inbounds nuw %class.V3Options, ptr %6, i32 0, i32 186
  %45 = zext i1 %43 to i8
  store i8 %45, ptr %44, align 1, !tbaa !675
  %46 = load i8, ptr %5, align 1, !tbaa !27, !range !33, !noundef !34
  %47 = trunc i8 %46 to i1
  %48 = getelementptr inbounds nuw %class.V3Options, ptr %6, i32 0, i32 187
  %49 = zext i1 %47 to i8
  store i8 %49, ptr %48, align 4, !tbaa !676
  %50 = load i8, ptr %5, align 1, !tbaa !27, !range !33, !noundef !34
  %51 = trunc i8 %50 to i1
  %52 = getelementptr inbounds nuw %class.V3Options, ptr %6, i32 0, i32 188
  %53 = zext i1 %51 to i8
  store i8 %53, ptr %52, align 1, !tbaa !677
  %54 = load i8, ptr %5, align 1, !tbaa !27, !range !33, !noundef !34
  %55 = trunc i8 %54 to i1
  %56 = getelementptr inbounds nuw %class.V3Options, ptr %6, i32 0, i32 189
  %57 = zext i1 %55 to i8
  store i8 %57, ptr %56, align 2, !tbaa !678
  %58 = load i8, ptr %5, align 1, !tbaa !27, !range !33, !noundef !34
  %59 = trunc i8 %58 to i1
  %60 = getelementptr inbounds nuw %class.V3Options, ptr %6, i32 0, i32 192
  %61 = zext i1 %59 to i8
  store i8 %61, ptr %60, align 1, !tbaa !679
  %62 = load i8, ptr %5, align 1, !tbaa !27, !range !33, !noundef !34
  %63 = trunc i8 %62 to i1
  %64 = getelementptr inbounds nuw %class.V3Options, ptr %6, i32 0, i32 193
  %65 = zext i1 %63 to i8
  store i8 %65, ptr %64, align 2, !tbaa !680
  %66 = load i8, ptr %5, align 1, !tbaa !27, !range !33, !noundef !34
  %67 = trunc i8 %66 to i1
  %68 = getelementptr inbounds nuw %class.V3Options, ptr %6, i32 0, i32 195
  %69 = zext i1 %67 to i8
  store i8 %69, ptr %68, align 4, !tbaa !681
  %70 = load i8, ptr %5, align 1, !tbaa !27, !range !33, !noundef !34
  %71 = trunc i8 %70 to i1
  %72 = getelementptr inbounds nuw %class.V3Options, ptr %6, i32 0, i32 196
  %73 = zext i1 %71 to i8
  store i8 %73, ptr %72, align 1, !tbaa !682
  %74 = load i8, ptr %5, align 1, !tbaa !27, !range !33, !noundef !34
  %75 = trunc i8 %74 to i1
  %76 = getelementptr inbounds nuw %class.V3Options, ptr %6, i32 0, i32 197
  %77 = zext i1 %75 to i8
  store i8 %77, ptr %76, align 2, !tbaa !683
  %78 = load i8, ptr %5, align 1, !tbaa !27, !range !33, !noundef !34
  %79 = trunc i8 %78 to i1
  %80 = getelementptr inbounds nuw %class.V3Options, ptr %6, i32 0, i32 198
  %81 = zext i1 %79 to i8
  store i8 %81, ptr %80, align 1, !tbaa !684
  %82 = load i8, ptr %5, align 1, !tbaa !27, !range !33, !noundef !34
  %83 = trunc i8 %82 to i1
  %84 = getelementptr inbounds nuw %class.V3Options, ptr %6, i32 0, i32 201
  %85 = zext i1 %83 to i8
  store i8 %85, ptr %84, align 2, !tbaa !685
  %86 = load i8, ptr %5, align 1, !tbaa !27, !range !33, !noundef !34
  %87 = trunc i8 %86 to i1
  %88 = getelementptr inbounds nuw %class.V3Options, ptr %6, i32 0, i32 202
  %89 = zext i1 %87 to i8
  store i8 %89, ptr %88, align 1, !tbaa !686
  %90 = load i8, ptr %5, align 1, !tbaa !27, !range !33, !noundef !34
  %91 = trunc i8 %90 to i1
  %92 = getelementptr inbounds nuw %class.V3Options, ptr %6, i32 0, i32 204
  %93 = zext i1 %91 to i8
  store i8 %93, ptr %92, align 1, !tbaa !687
  %94 = load i8, ptr %5, align 1, !tbaa !27, !range !33, !noundef !34
  %95 = trunc i8 %94 to i1
  %96 = getelementptr inbounds nuw %class.V3Options, ptr %6, i32 0, i32 205
  %97 = zext i1 %95 to i8
  store i8 %97, ptr %96, align 2, !tbaa !688
  %98 = load i8, ptr %5, align 1, !tbaa !27, !range !33, !noundef !34
  %99 = trunc i8 %98 to i1
  %100 = getelementptr inbounds nuw %class.V3Options, ptr %6, i32 0, i32 206
  %101 = zext i1 %99 to i8
  store i8 %101, ptr %100, align 1, !tbaa !689
  %102 = load i8, ptr %5, align 1, !tbaa !27, !range !33, !noundef !34
  %103 = trunc i8 %102 to i1
  %104 = getelementptr inbounds nuw %class.V3Options, ptr %6, i32 0, i32 207
  %105 = zext i1 %103 to i8
  store i8 %105, ptr %104, align 8, !tbaa !690
  %106 = load i32, ptr %4, align 4, !tbaa !11
  %107 = icmp sge i32 %106, 3
  br i1 %107, label %108, label %110

108:                                              ; preds = %2
  %109 = getelementptr inbounds nuw %class.V3Options, ptr %6, i32 0, i32 116
  store i32 -1, ptr %109, align 8, !tbaa !638
  br label %110

110:                                              ; preds = %108, %2
  call void @llvm.lifetime.end.p0(i64 1, ptr %5) #3
  ret void
}

; Function Attrs: inlinehint mustprogress nounwind uwtable
define internal void @"_ZZN9V3Options13parseOptsListEP8FileLineRKNSt7__cxx1112basic_stringIcSt11char_traitsIcESaIcEEEiPPcENK4$_67clEv"(ptr noundef nonnull align 8 dereferenceable(8) %0) #8 align 2 {
  %2 = alloca ptr, align 8
  store ptr %0, ptr %2, align 8, !tbaa !134
  %3 = load ptr, ptr %2, align 8
  %4 = getelementptr inbounds nuw %class.anon.161, ptr %3, i32 0, i32 0
  %5 = load ptr, ptr %4, align 8, !tbaa !386
  call void @_ZN9V3Options8optimizeEi(ptr noundef nonnull align 8 dereferenceable(1720) %5, i32 noundef 2)
  ret void
}

; Function Attrs: mustprogress nounwind uwtable
define linkonce_odr dso_local noundef ptr @_ZNKSt9_Any_data9_M_accessEv(ptr noundef nonnull align 8 dereferenceable(16) %0) #6 comdat align 2 {
  %2 = alloca ptr, align 8
  store ptr %0, ptr %2, align 8, !tbaa !1269
  %3 = load ptr, ptr %2, align 8
  %4 = getelementptr inbounds [16 x i8], ptr %3, i64 0, i64 0
  ret ptr %4
}

; Function Attrs: mustprogress uwtable
define internal void @"_ZSt13__invoke_implIvRZN9V3Options13parseOptsListEP8FileLineRKNSt7__cxx1112basic_stringIcSt11char_traitsIcESaIcEEEiPPcE4$_67JEET_St14__invoke_otherOT0_DpOT1_"(ptr noundef nonnull align 8 dereferenceable(8) %0) #4 {
  %2 = alloca ptr, align 8
  store ptr %0, ptr %2, align 8, !tbaa !134
  %3 = load ptr, ptr %2, align 8, !tbaa !134
  call void @"_ZZN9V3Options13parseOptsListEP8FileLineRKNSt7__cxx1112basic_stringIcSt11char_traitsIcESaIcEEEiPPcENK4$_67clEv"(ptr noundef nonnull align 8 dereferenceable(8) %3)
  ret void
}

; Function Attrs: mustprogress nounwind uwtable
define internal noundef nonnull align 8 dereferenceable(8) ptr @"_ZNKSt9_Any_data9_M_accessIZN9V3Options13parseOptsListEP8FileLineRKNSt7__cxx1112basic_stringIcSt11char_traitsIcESaIcEEEiPPcE4$_67EERKT_v"(ptr noundef nonnull align 8 dereferenceable(16) %0) #6 align 2 {
  %2 = alloca ptr, align 8
  store ptr %0, ptr %2, align 8, !tbaa !1269
  %3 = load ptr, ptr %2, align 8
  %4 = call noundef ptr @_ZNKSt9_Any_data9_M_accessEv(ptr noundef nonnull align 8 dereferenceable(16) %3) #3
  ret ptr %4
}

; Function Attrs: mustprogress uwtable
define internal void @"_ZSt10__invoke_rIvRZN9V3Options13parseOptsListEP8FileLineRKNSt7__cxx1112basic_stringIcSt11char_traitsIcESaIcEEEiPPcE4$_67JEENSt9enable_ifIX16is_invocable_r_vIT_T0_DpT1_EESG_E4typeEOSH_DpOSI_"(ptr noundef nonnull align 8 dereferenceable(8) %0) #4 {
  %2 = alloca ptr, align 8
  store ptr %0, ptr %2, align 8, !tbaa !134
  %3 = load ptr, ptr %2, align 8, !tbaa !134
  call void @"_ZSt13__invoke_implIvRZN9V3Options13parseOptsListEP8FileLineRKNSt7__cxx1112basic_stringIcSt11char_traitsIcESaIcEEEiPPcE4$_67JEET_St14__invoke_otherOT0_DpOT1_"(ptr noundef nonnull align 8 dereferenceable(8) %3)
  ret void
}

; Function Attrs: mustprogress nounwind uwtable
define internal noundef ptr @"_ZNSt14_Function_base13_Base_managerIZN9V3Options13parseOptsListEP8FileLineRKNSt7__cxx1112basic_stringIcSt11char_traitsIcESaIcEEEiPPcE4$_67E14_M_get_pointerERKSt9_Any_data"(ptr noundef nonnull align 8 dereferenceable(16) %0) #6 align 2 {
  %2 = alloca ptr, align 8
  %3 = alloca ptr, align 8
  store ptr %0, ptr %2, align 8, !tbaa !1269
  call void @llvm.lifetime.start.p0(i64 8, ptr %3) #3
  %4 = load ptr, ptr %2, align 8, !tbaa !1269
  %5 = call noundef nonnull align 8 dereferenceable(8) ptr @"_ZNKSt9_Any_data9_M_accessIZN9V3Options13parseOptsListEP8FileLineRKNSt7__cxx1112basic_stringIcSt11char_traitsIcESaIcEEEiPPcE4$_67EERKT_v"(ptr noundef nonnull align 8 dereferenceable(16) %4) #3
  store ptr %5, ptr %3, align 8, !tbaa !134
  %6 = load ptr, ptr %3, align 8, !tbaa !134
  call void @llvm.lifetime.end.p0(i64 8, ptr %3) #3
  ret ptr %6
}

; Function Attrs: mustprogress uwtable
define internal void @"_ZNSt17_Function_handlerIFvvEZN9V3Options13parseOptsListEP8FileLineRKNSt7__cxx1112basic_stringIcSt11char_traitsIcESaIcEEEiPPcE4$_67E9_M_invokeERKSt9_Any_data"(ptr noundef nonnull align 8 dereferenceable(16) %0) #4 align 2 {
  %2 = alloca ptr, align 8
  store ptr %0, ptr %2, align 8, !tbaa !1269
  %3 = load ptr, ptr %2, align 8, !tbaa !1269
  %4 = call noundef ptr @"_ZNSt14_Function_base13_Base_managerIZN9V3Options13parseOptsListEP8FileLineRKNSt7__cxx1112basic_stringIcSt11char_traitsIcESaIcEEEiPPcE4$_67E14_M_get_pointerERKSt9_Any_data"(ptr noundef nonnull align 8 dereferenceable(16) %3) #3
  call void @"_ZSt10__invoke_rIvRZN9V3Options13parseOptsListEP8FileLineRKNSt7__cxx1112basic_stringIcSt11char_traitsIcESaIcEEEiPPcE4$_67JEENSt9enable_ifIX16is_invocable_r_vIT_T0_DpT1_EESG_E4typeEOSH_DpOSI_"(ptr noundef nonnull align 8 dereferenceable(8) %4)
  ret void
}