; Function Attrs: mustprogress nofree norecurse nosync nounwind willreturn memory(write, argmem: readwrite, inaccessiblemem: none) uwtable
define internal void @"_ZNSt17_Function_handlerIFvvEZN9V3Options13parseOptsListEP8FileLineRKNSt7__cxx1112basic_stringIcSt11char_traitsIcESaIcEEEiPPcE4$_67E9_M_invokeERKSt9_Any_data"(ptr noundef nonnull readonly align 8 captures(none) dereferenceable(16) %0) #30 align 2 {
  %.val = load ptr, ptr %0, align 8, !tbaa !821
  %2 = getelementptr inbounds nuw i8, ptr %.val, i64 1681
  %3 = getelementptr inbounds nuw i8, ptr %.val, i64 1687
  store i8 1, ptr %3, align 1, !tbaa !484
  %4 = getelementptr inbounds nuw i8, ptr %.val, i64 1688
  store i8 1, ptr %4, align 8, !tbaa !485
  %5 = getelementptr inbounds nuw i8, ptr %.val, i64 1690
  %6 = getelementptr inbounds nuw i8, ptr %.val, i64 1697
  store i8 1, ptr %6, align 1, !tbaa !486
  %7 = getelementptr inbounds nuw i8, ptr %.val, i64 1698
  store i8 1, ptr %7, align 2, !tbaa !487
  %8 = getelementptr inbounds nuw i8, ptr %.val, i64 1700
  %9 = getelementptr inbounds nuw i8, ptr %.val, i64 1706
  store i8 1, ptr %9, align 2, !tbaa !488
  %10 = getelementptr inbounds nuw i8, ptr %.val, i64 1707
  store i8 1, ptr %10, align 1, !tbaa !489
  %11 = getelementptr inbounds nuw i8, ptr %.val, i64 1709
  tail call void @llvm.memset.p0.i64(ptr noundef nonnull align 1 dereferenceable(5) %2, i8 1, i64 5, i1 false)
  tail call void @llvm.memset.p0.i64(ptr noundef nonnull align 2 dereferenceable(5) %5, i8 1, i64 5, i1 false)
  store i32 16843009, ptr %8, align 4
  store i32 16843009, ptr %11, align 1
  ret void
}